; Function Attrs: inlinehint nounwind uwtable
define internal fastcc noalias nonnull ptr @lean_alloc_ctor(i32 noundef range(i32 0, 2) %0, i32 noundef range(i32 0, 8) %1, i32 noundef range(i32 0, 19) %2) unnamed_addr #0 {
  %4 = shl nuw nsw i32 %1, 3
  %narrow = add nuw nsw i32 %4, 8
  %narrow5 = add nuw nsw i32 %narrow, %2
  %5 = zext nneg i32 %narrow5 to i64
  %6 = and i64 %5, 120
  %7 = and i64 %5, 7
  %.not.i.i = icmp eq i64 %7, 0
  %8 = select i1 %.not.i.i, i64 0, i64 8
  %9 = add nuw nsw i64 %8, %6
  tail call void @lean_inc_heartbeat() #5
  %10 = tail call noalias ptr @mi_malloc_small(i64 noundef %9) #5
  %11 = icmp eq ptr %10, null
  br i1 %11, label %12, label %lean_alloc_small_object.exit.i

12:                                               ; preds = %3
  tail call void @lean_internal_panic_out_of_memory() #6
  unreachable

lean_alloc_small_object.exit.i:                   ; preds = %3
  %13 = trunc nuw nsw i64 %9 to i32
  %14 = getelementptr inbounds nuw i8, ptr %10, i64 4
  %15 = load i32, ptr %14, align 4
  %16 = and i32 %15, -65536
  %17 = or disjoint i32 %16, %13
  store i32 %17, ptr %14, align 4
  %18 = icmp samesign ult i32 %narrow5, %13
  br i1 %18, label %19, label %lean_alloc_ctor_memory.exit

19:                                               ; preds = %lean_alloc_small_object.exit.i
  %20 = getelementptr inbounds nuw i8, ptr %10, i64 %9
  %21 = getelementptr inbounds i8, ptr %20, i64 -8
  store i64 0, ptr %21, align 8, !tbaa !12
  %.pre = load i32, ptr %14, align 4
  br label %lean_alloc_ctor_memory.exit

lean_alloc_ctor_memory.exit:                      ; preds = %lean_alloc_small_object.exit.i, %19
  %22 = phi i32 [ %17, %lean_alloc_small_object.exit.i ], [ %.pre, %19 ]
  store i32 1, ptr %10, align 4, !tbaa !4
  %23 = shl nuw nsw i32 %0, 24
  %24 = and i32 %22, 65535
  %25 = or disjoint i32 %24, %23
  %26 = shl nuw nsw i32 %1, 16
  %27 = or disjoint i32 %25, %26
  store i32 %27, ptr %14, align 4
  ret ptr %10
}